	.file	"teste.c"
	.text
	.comm	suahsua,4,4
	.comm	euhauhuh,4,4
	.globl	mult
	.type	mult, @function
mult:
.LFB0:
	.cfi_startproc
	pushq	%rbp
	.cfi_def_cfa_offset 16
	.cfi_offset 6, -16
	movq	%rsp, %rbp
	.cfi_def_cfa_register 6
	movl	%edi, -20(%rbp)
	movl	%esi, -24(%rbp)
	movl	$22, suahsua(%rip)
	cmpl	$0, -20(%rbp)
	jle	.L2
	movl	-20(%rbp), %eax
	imull	-24(%rbp), %eax
	movl	%eax, -4(%rbp)
	jmp	.L3
.L2:
	movl	-24(%rbp), %eax
	movl	%eax, -4(%rbp)
.L3:
	movl	-4(%rbp), %eax
	popq	%rbp
	.cfi_def_cfa 7, 8
	ret
	.cfi_endproc
.LFE0:
	.size	mult, .-mult
	.globl	main
	.type	main, @function
main:
.LFB1:
	.cfi_startproc
	pushq	%rbp
	.cfi_def_cfa_offset 16
	.cfi_offset 6, -16
	movq	%rsp, %rbp
	.cfi_def_cfa_register 6
	subq	$16, %rsp
	movl	$2, -8(%rbp)
	movl	-8(%rbp), %edx
	movl	-8(%rbp), %eax
	movl	%edx, %esi
	movl	%eax, %edi
	call	mult
	movl	%eax, -4(%rbp)
	movl	$0, %eax
	leave
	.cfi_def_cfa 7, 8
	ret
	.cfi_endproc
.LFE1:
	.size	main, .-main
	.globl	n
	.type	n, @function
n:
.LFB2:
	.cfi_startproc
	pushq	%rbp
	.cfi_def_cfa_offset 16
	.cfi_offset 6, -16
	movq	%rsp, %rbp
	.cfi_def_cfa_register 6
	subq	$16, %rsp
	movl	$2, -8(%rbp)
	movl	-8(%rbp), %edx
	movl	-8(%rbp), %eax
	movl	%edx, %esi
	movl	%eax, %edi
	call	mult
	movl	%eax, -4(%rbp)
	movl	$0, %eax
	leave
	.cfi_def_cfa 7, 8
	ret
	.cfi_endproc
.LFE2:
	.size	n, .-n
	.ident	"GCC: (Ubuntu 7.5.0-3ubuntu1~18.04) 7.5.0"
	.section	.note.GNU-stack,"",@progbits
